; Function Attrs: nofree norecurse nosync nounwind memory(readwrite, inaccessiblemem: none) uwtable
define void @OSQPVectorf_copy(ptr nocapture noundef readonly %0, ptr nocapture noundef readonly %1) local_unnamed_addr #7 {
  %3 = load ptr, ptr %1, align 8
  %4 = getelementptr inbounds i8, ptr %0, i64 8
  %5 = load i64, ptr %4, align 8
  %6 = load ptr, ptr %0, align 8
  %7 = icmp sgt i64 %5, 0
  br i1 %7, label %.lr.ph.i, label %OSQPVectorf_from_raw.exit

.lr.ph.i:                                         ; preds = %2, %.lr.ph.i
  %.08.i = phi i64 [ %11, %.lr.ph.i ], [ 0, %2 ]
  %8 = getelementptr inbounds double, ptr %3, i64 %.08.i
  %9 = load double, ptr %8, align 8
  %10 = getelementptr inbounds double, ptr %6, i64 %.08.i
  store double %9, ptr %10, align 8
  %11 = add nuw nsw i64 %.08.i, 1
  %exitcond.not.i = icmp eq i64 %11, %5
  br i1 %exitcond.not.i, label %OSQPVectorf_from_raw.exit, label %.lr.ph.i, !llvm.loop !6

OSQPVectorf_from_raw.exit:                        ; preds = %.lr.ph.i, %2
  ret void
}